(lp0
(dp1
S'WT1'
p2
(lp3
F43.715746
aF16.057453
asS'WT2'
p4
(lp5
F43.714201
aF16.061135
asS'WT3'
p6
(lp7
F43.712261
aF16.064493
asS'WT4'
p8
(lp9
F43.710064
aF16.067621
asS'WT5'
p10
(lp11
F43.708266
aF16.071316
asS'WT6'
p12
(lp13
F43.70665
aF16.075008
asS'WT7'
p14
(lp15
F43.705833
aF16.079293
asS'WT8'
p16
(lp17
F43.704973
aF16.083304
asS'WT9'
p18
(lp19
F43.704562
aF16.08763
asa(dp20
g2
(lp21
F43.74669
aF16.070353
asg4
(lp22
F43.74556
aF16.07389
asg6
(lp23
F43.74421
aF16.077251
asg8
(lp24
F43.741876
aF16.079088
asg10
(lp25
F43.741018
aF16.082779
asg12
(lp26
F43.739113
aF16.085578
asg14
(lp27
F43.737266
aF16.088218
asg16
(lp28
F43.735246
aF16.095816
asg18
(lp29
F43.731618
aF16.105645
asS'WT10'
p30
(lp31
F43.72875
aF16.108914
asa(dp32
g2
(lp33
F43.714521
aF15.999495
asg4
(lp34
F43.71204
aF16.001226
asg6
(lp35
F43.709697
aF16.004747
asg8
(lp36
F43.707453
aF16.008478
asg10
(lp37
F43.705614
aF16.012646
asg12
(lp38
F43.703302
aF16.016016
asg14
(lp39
F43.701296
aF16.020012
asa(dp40
g2
(lp41
F43.746447
aF15.98637
asg4
(lp42
F43.74407
aF15.984197
asg6
(lp43
F43.746524
aF15.982722
asg8
(lp44
F43.743462
aF15.980835
asg10
(lp45
F43.74519
aF15.979151
asg12
(lp46
F43.747499
aF15.976979
asg14
(lp47
F43.748944
aF15.97386
asg16
(lp48
F43.74997
aF15.970363
asg18
(lp49
F43.752335
aF15.968683
asS'WT12'
p50
(lp51
F43.757839
aF15.959167
asS'WT13'
p52
(lp53
F43.759448
aF15.956227
asg30
(lp54
F43.754005
aF15.965789
asS'WT11'
p55
(lp56
F43.755944
aF15.96197
asS'WT14'
p57
(lp58
F43.760856
aF15.952898
asa.